; Function Attrs: nounwind uwtable
define void @Ssw_ManSweepTransfer(ptr noundef readonly captures(none) %0) local_unnamed_addr #0 {
  %2 = getelementptr inbounds nuw i8, ptr %0, i64 16
  %3 = load ptr, ptr %2, align 8, !tbaa !3
  %4 = getelementptr inbounds nuw i8, ptr %3, i64 16
  %5 = load ptr, ptr %4, align 8, !tbaa !19
  %6 = getelementptr i8, ptr %5, i64 4
  %.val23 = load i32, ptr %6, align 4, !tbaa !27
  %7 = icmp sgt i32 %.val23, 0
  br i1 %7, label %.lr.ph, label %.critedge

.lr.ph:                                           ; preds = %1
  %8 = getelementptr i8, ptr %0, i64 8
  %9 = getelementptr i8, ptr %0, i64 32
  %10 = getelementptr inbounds nuw i8, ptr %0, i64 24
  %11 = getelementptr inbounds nuw i8, ptr %0, i64 72
  %12 = getelementptr inbounds nuw i8, ptr %0, i64 200
  br label %13

13:                                               ; preds = %.lr.ph, %39
  %indvars.iv = phi i64 [ 0, %.lr.ph ], [ %indvars.iv.next, %39 ]
  %14 = phi ptr [ %5, %.lr.ph ], [ %42, %39 ]
  %15 = getelementptr i8, ptr %14, i64 8
  %.val16 = load ptr, ptr %15, align 8, !tbaa !29
  %16 = getelementptr inbounds nuw ptr, ptr %.val16, i64 %indvars.iv
  %17 = load ptr, ptr %16, align 8, !tbaa !30
  %.val18 = load i32, ptr %8, align 8, !tbaa !31
  %.val19 = load ptr, ptr %9, align 8, !tbaa !32
  %18 = getelementptr i8, ptr %17, i64 36
  %.val20 = load i32, ptr %18, align 4, !tbaa !33
  %19 = mul nsw i32 %.val20, %.val18
  %20 = sext i32 %19 to i64
  %21 = getelementptr inbounds ptr, ptr %.val19, i64 %20
  %22 = load ptr, ptr %21, align 8, !tbaa !34
  %23 = load ptr, ptr %10, align 8, !tbaa !35
  %24 = getelementptr i8, ptr %23, i64 48
  %.val21 = load ptr, ptr %24, align 8, !tbaa !36
  %25 = ptrtoint ptr %.val21 to i64
  %26 = xor i64 %25, 1
  %27 = inttoptr i64 %26 to ptr
  %28 = icmp eq ptr %22, %27
  br i1 %28, label %29, label %31

29:                                               ; preds = %13
  %30 = load ptr, ptr %12, align 8, !tbaa !37
  tail call void @Ssw_SmlObjAssignConst(ptr noundef %30, ptr noundef nonnull %17, i32 noundef 0, i32 noundef 0) #9
  br label %39

31:                                               ; preds = %13
  %32 = load ptr, ptr %11, align 8, !tbaa !38
  %.val22 = load i32, ptr %22, align 8, !tbaa !39
  %33 = getelementptr i8, ptr %32, i64 8
  %.val17 = load ptr, ptr %33, align 8, !tbaa !29
  %34 = sext i32 %.val22 to i64
  %35 = getelementptr inbounds ptr, ptr %.val17, i64 %34
  %36 = load ptr, ptr %35, align 8, !tbaa !30
  %37 = load ptr, ptr %12, align 8, !tbaa !37
  %38 = load i32, ptr %36, align 4, !tbaa !40
  tail call void @Ssw_SmlObjSetWord(ptr noundef %37, ptr noundef nonnull %17, i32 noundef %38, i32 noundef 0, i32 noundef 0) #9
  br label %39

39:                                               ; preds = %31, %29
  %indvars.iv.next = add nuw nsw i64 %indvars.iv, 1
  %40 = load ptr, ptr %2, align 8, !tbaa !3
  %41 = getelementptr inbounds nuw i8, ptr %40, i64 16
  %42 = load ptr, ptr %41, align 8, !tbaa !19
  %43 = getelementptr i8, ptr %42, i64 4
  %.val = load i32, ptr %43, align 4, !tbaa !27
  %44 = sext i32 %.val to i64
  %45 = icmp slt i64 %indvars.iv.next, %44
  br i1 %45, label %13, label %.critedge, !llvm.loop !41

.critedge:                                        ; preds = %39, %1
  ret void
}